; Function Attrs: nounwind sspstrong uwtable
define dso_local noundef zeroext i1 @visit_type_AudiodevSndioOptions_members(ptr noundef %v, ptr noundef %obj, ptr noundef %errp) local_unnamed_addr #0 {
entry:
  %has_in = alloca i8, align 1
  %has_out = alloca i8, align 1
  %has_dev = alloca i8, align 1
  %0 = load ptr, ptr %obj, align 8
  %tobool = icmp ne ptr %0, null
  %frombool = zext i1 %tobool to i8
  store i8 %frombool, ptr %has_in, align 1
  %out = getelementptr inbounds nuw i8, ptr %obj, i64 8
  %1 = load ptr, ptr %out, align 8
  %tobool2 = icmp ne ptr %1, null
  %frombool5 = zext i1 %tobool2 to i8
  store i8 %frombool5, ptr %has_out, align 1
  %dev = getelementptr inbounds nuw i8, ptr %obj, i64 16
  %2 = load ptr, ptr %dev, align 8
  %tobool6 = icmp ne ptr %2, null
  %frombool9 = zext i1 %tobool6 to i8
  store i8 %frombool9, ptr %has_dev, align 1
  %call = call zeroext i1 @visit_optional(ptr noundef %v, ptr noundef nonnull @.str.9, ptr noundef nonnull %has_in) #5
  br i1 %call, label %if.then, label %if.end13

if.then:                                          ; preds = %entry
  %call11 = call zeroext i1 @visit_type_AudiodevPerDirectionOptions(ptr noundef %v, ptr noundef nonnull @.str.9, ptr noundef nonnull %obj, ptr noundef %errp)
  br i1 %call11, label %if.end13, label %return

if.end13:                                         ; preds = %if.then, %entry
  %call14 = call zeroext i1 @visit_optional(ptr noundef %v, ptr noundef nonnull @.str.10, ptr noundef nonnull %has_out) #5
  br i1 %call14, label %if.then15, label %if.end20

if.then15:                                        ; preds = %if.end13
  %call17 = call zeroext i1 @visit_type_AudiodevPerDirectionOptions(ptr noundef %v, ptr noundef nonnull @.str.10, ptr noundef nonnull %out, ptr noundef %errp)
  br i1 %call17, label %if.end20, label %return

if.end20:                                         ; preds = %if.then15, %if.end13
  %call21 = call zeroext i1 @visit_optional(ptr noundef %v, ptr noundef nonnull @.str.11, ptr noundef nonnull %has_dev) #5
  br i1 %call21, label %if.then22, label %if.end27

if.then22:                                        ; preds = %if.end20
  %call24 = call zeroext i1 @visit_type_str(ptr noundef %v, ptr noundef nonnull @.str.11, ptr noundef nonnull %dev, ptr noundef %errp) #5
  br i1 %call24, label %if.end27, label %return

if.end27:                                         ; preds = %if.then22, %if.end20
  %has_latency = getelementptr inbounds nuw i8, ptr %obj, i64 24
  %call28 = call zeroext i1 @visit_optional(ptr noundef %v, ptr noundef nonnull @.str.15, ptr noundef nonnull %has_latency) #5
  br i1 %call28, label %if.then29, label %if.end33

if.then29:                                        ; preds = %if.end27
  %latency = getelementptr inbounds nuw i8, ptr %obj, i64 28
  %call30 = call zeroext i1 @visit_type_uint32(ptr noundef %v, ptr noundef nonnull @.str.15, ptr noundef nonnull %latency, ptr noundef %errp) #5
  br i1 %call30, label %if.end33, label %return

if.end33:                                         ; preds = %if.then29, %if.end27
  br label %return

return:                                           ; preds = %if.then29, %if.then22, %if.then15, %if.then, %if.end33
  %retval.0 = phi i1 [ true, %if.end33 ], [ false, %if.then ], [ false, %if.then15 ], [ false, %if.then22 ], [ false, %if.then29 ]
  ret i1 %retval.0
}